target datalayout = "e-m:e-p270:32:32-p271:32:32-p272:64:64-i64:64-i128:128-f80:128-n8:16:32:64-S128"
target triple = "x86_64-pc-linux-gnu"

%class.State = type { [315 x i32], [315 x i16], i32, ptr, [2 x ptr] }

; Function Attrs: mustprogress nounwind uwtable
define hidden void @_ZN5State21_sub_Op_PopulateIndexEPK4Node(ptr noundef nonnull align 8 dereferenceable(1920) %0, ptr noundef %1) #1 align 2 {
  %3 = alloca ptr, align 8
  %4 = alloca ptr, align 8
  %5 = alloca i32, align 4
  %6 = alloca i32, align 4
  store ptr %0, ptr %3, align 8
  store ptr %1, ptr %4, align 8
  %7 = load ptr, ptr %3, align 8
  %8 = getelementptr inbounds %class.State, ptr %7, i32 0, i32 4
  %9 = getelementptr inbounds [2 x ptr], ptr %8, i64 0, i64 0
  %10 = load ptr, ptr %9, align 8
  %11 = icmp ne ptr %10, null
  br i1 %11, label %12, label %63

12:                                               ; preds = %2
  %13 = getelementptr inbounds %class.State, ptr %7, i32 0, i32 4
  %14 = getelementptr inbounds [2 x ptr], ptr %13, i64 0, i64 0
  %15 = load ptr, ptr %14, align 8
  %16 = getelementptr inbounds %class.State, ptr %15, i32 0, i32 1
  %17 = getelementptr inbounds [315 x i16], ptr %16, i64 0, i64 68
  %18 = load i16, ptr %17, align 4
  %19 = zext i16 %18 to i32
  %20 = and i32 %19, 1
  %21 = icmp ne i32 %20, 0
  br i1 %21, label %22, label %63

22:                                               ; preds = %12
  %23 = getelementptr inbounds %class.State, ptr %7, i32 0, i32 4
  %24 = getelementptr inbounds [2 x ptr], ptr %23, i64 0, i64 1
  %25 = load ptr, ptr %24, align 8
  %26 = icmp ne ptr %25, null
  br i1 %26, label %27, label %63

27:                                               ; preds = %22
  %28 = getelementptr inbounds %class.State, ptr %7, i32 0, i32 4
  %29 = getelementptr inbounds [2 x ptr], ptr %28, i64 0, i64 1
  %30 = load ptr, ptr %29, align 8
  %31 = getelementptr inbounds %class.State, ptr %30, i32 0, i32 1
  %32 = getelementptr inbounds [315 x i16], ptr %31, i64 0, i64 10
  %33 = load i16, ptr %32, align 4
  %34 = zext i16 %33 to i32
  %35 = and i32 %34, 1
  %36 = icmp ne i32 %35, 0
  br i1 %36, label %37, label %63

37:                                               ; preds = %27
  %38 = getelementptr inbounds %class.State, ptr %7, i32 0, i32 4
  %39 = getelementptr inbounds [2 x ptr], ptr %38, i64 0, i64 0
  %40 = load ptr, ptr %39, align 8
  %41 = getelementptr inbounds %class.State, ptr %40, i32 0, i32 0
  %42 = getelementptr inbounds [315 x i32], ptr %41, i64 0, i64 68
  %43 = load i32, ptr %42, align 8
  %44 = getelementptr inbounds %class.State, ptr %7, i32 0, i32 4
  %45 = getelementptr inbounds [2 x ptr], ptr %44, i64 0, i64 1
  %46 = load ptr, ptr %45, align 8
  %47 = getelementptr inbounds %class.State, ptr %46, i32 0, i32 0
  %48 = getelementptr inbounds [315 x i32], ptr %47, i64 0, i64 10
  %49 = load i32, ptr %48, align 8
  %50 = add i32 %43, %49
  %51 = add i32 %50, 100
  store i32 %51, ptr %5, align 4
  %52 = load i32, ptr %5, align 4
  %53 = getelementptr inbounds %class.State, ptr %7, i32 0, i32 0
  %54 = getelementptr inbounds [315 x i32], ptr %53, i64 0, i64 114
  store i32 %52, ptr %54, align 8
  %55 = getelementptr inbounds %class.State, ptr %7, i32 0, i32 1
  %56 = getelementptr inbounds [315 x i16], ptr %55, i64 0, i64 114
  store i16 2969, ptr %56, align 4
  %57 = load i32, ptr %5, align 4
  %58 = add i32 %57, 100
  %59 = getelementptr inbounds %class.State, ptr %7, i32 0, i32 0
  %60 = getelementptr inbounds [315 x i32], ptr %59, i64 0, i64 115
  store i32 %58, ptr %60, align 4
  %61 = getelementptr inbounds %class.State, ptr %7, i32 0, i32 1
  %62 = getelementptr inbounds [315 x i16], ptr %61, i64 0, i64 115
  store i16 731, ptr %62, align 2
  br label %63

63:                                               ; preds = %37, %27, %22, %12, %2
  %64 = getelementptr inbounds %class.State, ptr %7, i32 0, i32 4
  %65 = getelementptr inbounds [2 x ptr], ptr %64, i64 0, i64 0
  %66 = load ptr, ptr %65, align 8
  %67 = icmp ne ptr %66, null
  br i1 %67, label %68, label %148

68:                                               ; preds = %63
  %69 = getelementptr inbounds %class.State, ptr %7, i32 0, i32 4
  %70 = getelementptr inbounds [2 x ptr], ptr %69, i64 0, i64 0
  %71 = load ptr, ptr %70, align 8
  %72 = getelementptr inbounds %class.State, ptr %71, i32 0, i32 1
  %73 = getelementptr inbounds [315 x i16], ptr %72, i64 0, i64 49
  %74 = load i16, ptr %73, align 2
  %75 = zext i16 %74 to i32
  %76 = and i32 %75, 1
  %77 = icmp ne i32 %76, 0
  br i1 %77, label %78, label %148

78:                                               ; preds = %68
  %79 = getelementptr inbounds %class.State, ptr %7, i32 0, i32 4
  %80 = getelementptr inbounds [2 x ptr], ptr %79, i64 0, i64 1
  %81 = load ptr, ptr %80, align 8
  %82 = icmp ne ptr %81, null
  br i1 %82, label %83, label %148

83:                                               ; preds = %78
  %84 = getelementptr inbounds %class.State, ptr %7, i32 0, i32 4
  %85 = getelementptr inbounds [2 x ptr], ptr %84, i64 0, i64 1
  %86 = load ptr, ptr %85, align 8
  %87 = getelementptr inbounds %class.State, ptr %86, i32 0, i32 1
  %88 = getelementptr inbounds [315 x i16], ptr %87, i64 0, i64 10
  %89 = load i16, ptr %88, align 4
  %90 = zext i16 %89 to i32
  %91 = and i32 %90, 1
  %92 = icmp ne i32 %91, 0
  br i1 %92, label %93, label %148

93:                                               ; preds = %83
  %94 = getelementptr inbounds %class.State, ptr %7, i32 0, i32 4
  %95 = getelementptr inbounds [2 x ptr], ptr %94, i64 0, i64 0
  %96 = load ptr, ptr %95, align 8
  %97 = getelementptr inbounds %class.State, ptr %96, i32 0, i32 0
  %98 = getelementptr inbounds [315 x i32], ptr %97, i64 0, i64 49
  %99 = load i32, ptr %98, align 4
  %100 = getelementptr inbounds %class.State, ptr %7, i32 0, i32 4
  %101 = getelementptr inbounds [2 x ptr], ptr %100, i64 0, i64 1
  %102 = load ptr, ptr %101, align 8
  %103 = getelementptr inbounds %class.State, ptr %102, i32 0, i32 0
  %104 = getelementptr inbounds [315 x i32], ptr %103, i64 0, i64 10
  %105 = load i32, ptr %104, align 8
  %106 = add i32 %99, %105
  %107 = add i32 %106, 100
  store i32 %107, ptr %6, align 4
  %108 = getelementptr inbounds %class.State, ptr %7, i32 0, i32 1
  %109 = getelementptr inbounds [315 x i16], ptr %108, i64 0, i64 114
  %110 = load i16, ptr %109, align 4
  %111 = zext i16 %110 to i32
  %112 = and i32 %111, 1
  %113 = icmp eq i32 %112, 0
  br i1 %113, label %120, label %114

114:                                              ; preds = %93
  %115 = getelementptr inbounds %class.State, ptr %7, i32 0, i32 0
  %116 = getelementptr inbounds [315 x i32], ptr %115, i64 0, i64 114
  %117 = load i32, ptr %116, align 8
  %118 = load i32, ptr %6, align 4
  %119 = icmp ugt i32 %117, %118
  br i1 %119, label %120, label %126

120:                                              ; preds = %114, %93
  %121 = load i32, ptr %6, align 4
  %122 = getelementptr inbounds %class.State, ptr %7, i32 0, i32 0
  %123 = getelementptr inbounds [315 x i32], ptr %122, i64 0, i64 114
  store i32 %121, ptr %123, align 8
  %124 = getelementptr inbounds %class.State, ptr %7, i32 0, i32 1
  %125 = getelementptr inbounds [315 x i16], ptr %124, i64 0, i64 114
  store i16 2967, ptr %125, align 4
  br label %126

126:                                              ; preds = %120, %114
  %127 = getelementptr inbounds %class.State, ptr %7, i32 0, i32 1
  %128 = getelementptr inbounds [315 x i16], ptr %127, i64 0, i64 115
  %129 = load i16, ptr %128, align 2
  %130 = zext i16 %129 to i32
  %131 = and i32 %130, 1
  %132 = icmp eq i32 %131, 0
  br i1 %132, label %140, label %133

133:                                              ; preds = %126
  %134 = getelementptr inbounds %class.State, ptr %7, i32 0, i32 0
  %135 = getelementptr inbounds [315 x i32], ptr %134, i64 0, i64 115
  %136 = load i32, ptr %135, align 4
  %137 = load i32, ptr %6, align 4
  %138 = add i32 %137, 100
  %139 = icmp ugt i32 %136, %138
  br i1 %139, label %140, label %147

140:                                              ; preds = %133, %126
  %141 = load i32, ptr %6, align 4
  %142 = add i32 %141, 100
  %143 = getelementptr inbounds %class.State, ptr %7, i32 0, i32 0
  %144 = getelementptr inbounds [315 x i32], ptr %143, i64 0, i64 115
  store i32 %142, ptr %144, align 4
  %145 = getelementptr inbounds %class.State, ptr %7, i32 0, i32 1
  %146 = getelementptr inbounds [315 x i16], ptr %145, i64 0, i64 115
  store i16 731, ptr %146, align 2
  br label %147

147:                                              ; preds = %140, %133
  br label %148

148:                                              ; preds = %147, %83, %78, %68, %63
  ret void
}