; Function Attrs: mustprogress nofree norecurse nosync nounwind willreturn memory(read, argmem: readwrite, inaccessiblemem: none) uwtable
define hidden void @_ZN5State21_sub_Op_PopulateIndexEPK4Node(ptr nocapture noundef nonnull align 8 dereferenceable(1920) %0, ptr nocapture readnone %1) local_unnamed_addr #1 align 2 {
  %3 = getelementptr inbounds i8, ptr %0, i64 1904
  %4 = load ptr, ptr %3, align 8
  %.not = icmp eq ptr %4, null
  br i1 %.not, label %66, label %5

5:                                                ; preds = %2
  %6 = getelementptr inbounds i8, ptr %4, i64 1396
  %7 = load i16, ptr %6, align 4
  %8 = and i16 %7, 1
  %.not9 = icmp eq i16 %8, 0
  br i1 %.not9, label %28, label %9

9:                                                ; preds = %5
  %10 = getelementptr inbounds i8, ptr %0, i64 1912
  %11 = load ptr, ptr %10, align 8
  %.not10 = icmp eq ptr %11, null
  br i1 %.not10, label %28, label %12

12:                                               ; preds = %9
  %13 = getelementptr inbounds i8, ptr %11, i64 1280
  %14 = load i16, ptr %13, align 4
  %15 = and i16 %14, 1
  %.not11 = icmp eq i16 %15, 0
  br i1 %.not11, label %28, label %16

16:                                               ; preds = %12
  %17 = getelementptr inbounds i8, ptr %4, i64 272
  %18 = load i32, ptr %17, align 8
  %19 = getelementptr inbounds i8, ptr %11, i64 40
  %20 = load i32, ptr %19, align 8
  %21 = add i32 %20, %18
  %22 = add i32 %21, 100
  %23 = getelementptr inbounds i8, ptr %0, i64 456
  store i32 %22, ptr %23, align 8
  %24 = getelementptr inbounds i8, ptr %0, i64 1488
  store i16 2969, ptr %24, align 8
  %25 = add i32 %21, 200
  %26 = getelementptr inbounds i8, ptr %0, i64 460
  store i32 %25, ptr %26, align 4
  %27 = getelementptr inbounds i8, ptr %0, i64 1490
  store i16 731, ptr %27, align 2
  br label %28

28:                                               ; preds = %16, %12, %9, %5
  %29 = getelementptr inbounds i8, ptr %4, i64 1358
  %30 = load i16, ptr %29, align 2
  %31 = and i16 %30, 1
  %.not13 = icmp eq i16 %31, 0
  br i1 %.not13, label %66, label %32

32:                                               ; preds = %28
  %33 = getelementptr inbounds i8, ptr %0, i64 1912
  %34 = load ptr, ptr %33, align 8
  %.not14 = icmp eq ptr %34, null
  br i1 %.not14, label %66, label %35

35:                                               ; preds = %32
  %36 = getelementptr inbounds i8, ptr %34, i64 1280
  %37 = load i16, ptr %36, align 4
  %38 = and i16 %37, 1
  %.not15 = icmp eq i16 %38, 0
  br i1 %.not15, label %66, label %39

39:                                               ; preds = %35
  %40 = getelementptr inbounds i8, ptr %4, i64 196
  %41 = load i32, ptr %40, align 4
  %42 = getelementptr inbounds i8, ptr %34, i64 40
  %43 = load i32, ptr %42, align 8
  %44 = add i32 %43, %41
  %45 = add i32 %44, 100
  %46 = getelementptr inbounds i8, ptr %0, i64 1488
  %47 = load i16, ptr %46, align 8
  %48 = and i16 %47, 1
  %49 = icmp eq i16 %48, 0
  %50 = getelementptr inbounds i8, ptr %0, i64 456
  %51 = load i32, ptr %50, align 8
  %52 = icmp ugt i32 %51, %45
  %or.cond = select i1 %49, i1 true, i1 %52
  br i1 %or.cond, label %53, label %54

53:                                               ; preds = %39
  store i32 %45, ptr %50, align 8
  store i16 2967, ptr %46, align 8
  br label %54

54:                                               ; preds = %39, %53
  %55 = getelementptr inbounds i8, ptr %0, i64 1490
  %56 = load i16, ptr %55, align 2
  %57 = and i16 %56, 1
  %58 = icmp eq i16 %57, 0
  br i1 %58, label %._crit_edge, label %59

._crit_edge:                                      ; preds = %54
  %.pre = add i32 %44, 200
  br label %64

59:                                               ; preds = %54
  %60 = getelementptr inbounds i8, ptr %0, i64 460
  %61 = load i32, ptr %60, align 4
  %62 = add i32 %44, 200
  %63 = icmp ugt i32 %61, %62
  br i1 %63, label %64, label %66

64:                                               ; preds = %._crit_edge, %59
  %.pre-phi = phi i32 [ %.pre, %._crit_edge ], [ %62, %59 ]
  %65 = getelementptr inbounds i8, ptr %0, i64 460
  store i32 %.pre-phi, ptr %65, align 4
  store i16 731, ptr %55, align 2
  br label %66

66:                                               ; preds = %2, %59, %64, %35, %32, %28
  ret void
}